Certificate:
    Data:
        Version: 1 (0x0)
        Serial Number: 2 (0x2)
    Signature Algorithm: sha512WithRSAEncryption
        Issuer: C=US, ST=CA, O=Open vSwitch, OU=switchca, CN=OVS switchca CA Certificate (2019 Apr 22 17:15:22)
        Validity
            Not Before: Apr 22 11:47:43 2019 GMT
            Not After : Apr 19 11:47:43 2029 GMT
        Subject: C=US, ST=CA, O=Open vSwitch, OU=Open vSwitch certifier, CN=sc id:e6e431f9-d636-4642-9a95-66fde239c14b
        Subject Public Key Info:
            Public Key Algorithm: rsaEncryption
                Public-Key: (2048 bit)
                Modulus:
                    00:b9:43:69:da:64:00:21:67:48:93:e1:c5:0c:5f:
                    84:51:d4:9d:d1:77:87:24:db:61:ab:e5:e6:6f:9c:
                    c5:0b:68:36:a1:7f:6a:99:83:4c:90:68:cf:ba:c2:
                    43:45:19:a7:9b:22:cb:d7:2a:78:7a:76:b2:0d:b8:
                    dc:a9:c3:69:90:84:65:2a:dc:60:9d:59:87:bc:b0:
                    ae:6e:2b:5d:f5:fd:0d:ac:82:d7:e5:64:50:56:b6:
                    42:6c:1b:ea:c7:46:3a:bd:c1:90:ac:e0:78:64:de:
                    31:af:6c:96:4e:49:23:63:ff:ca:c6:7c:26:f2:6b:
                    bb:cd:88:db:c1:e3:b5:42:ed:df:b3:4b:a6:a6:db:
                    39:62:e2:5e:a7:43:76:ff:cf:be:ce:eb:00:73:0e:
                    93:cf:d1:7e:b0:27:05:ff:ae:62:e3:01:e3:a2:03:
                    7e:b5:67:f1:0d:f4:83:14:31:c0:01:06:91:4a:f6:
                    37:51:69:0e:e2:08:3b:55:b9:7f:df:0e:d9:5f:ee:
                    95:db:7e:8a:44:0f:d1:fd:4f:70:13:d9:c6:86:1d:
                    c7:ca:d8:1f:a5:f0:5f:25:01:9f:30:a8:2c:24:1d:
                    c9:ef:67:67:f3:f5:b8:b6:f4:5e:3e:91:39:16:6b:
                    68:64:50:de:d2:ce:de:b5:0a:c7:04:f2:e7:79:4f:
                    01:91
                Exponent: 65537 (0x10001)
    Signature Algorithm: sha512WithRSAEncryption
         93:08:d7:7f:53:80:35:92:88:17:9c:f0:9d:15:e5:c7:12:38:
         1f:ab:47:6a:b8:a4:5e:c1:80:ba:f7:6a:24:95:f6:a1:94:e7:
         9f:c7:18:eb:ae:c7:b6:69:5b:0e:24:04:10:e1:8c:8f:fe:d8:
         92:33:6e:da:b5:ef:16:07:41:e0:49:64:82:5e:e3:6f:4c:d4:
         e7:d3:56:c6:e2:92:ac:5f:82:b4:09:b4:f8:5b:99:29:9c:53:
         b8:13:d4:e2:bd:0a:fa:7b:19:05:86:58:68:ca:a4:e2:d0:4f:
         27:7d:5c:f6:f4:f3:74:fd:ec:c1:ee:e1:c3:5d:8a:01:c0:39:
         8a:b6:c9:7b:e9:23:30:f1:38:22:14:f9:53:76:77:fe:b7:0a:
         05:1e:b0:52:52:f0:20:05:8e:74:69:4a:88:50:0d:34:aa:33:
         b7:c1:40:0d:8e:bd:56:a3:ad:95:73:4f:87:75:6b:c4:de:07:
         c0:23:c7:47:61:4b:60:26:a1:0b:8a:4d:fc:ae:e6:06:85:9a:
         48:1f:55:7c:3c:c1:b8:ae:c5:07:e3:d8:a1:5a:10:3d:30:c1:
         0e:6a:1d:5f:be:52:96:f0:ed:d8:5e:ad:df:d6:d8:3c:8d:b4:
         a5:3b:6c:90:ce:ee:ad:b8:2e:83:53:e3:94:ed:97:29:b6:e5:
         eb:b7:89:cd
-----BEGIN CERTIFICATE-----
MIIDfjCCAmYCAQIwDQYJKoZIhvcNAQENBQAwgYExCzAJBgNVBAYTAlVTMQswCQYD
VQQIDAJDQTEVMBMGA1UECgwMT3BlbiB2U3dpdGNoMREwDwYDVQQLDAhzd2l0Y2hj
YTE7MDkGA1UEAwwyT1ZTIHN3aXRjaGNhIENBIENlcnRpZmljYXRlICgyMDE5IEFw
ciAyMiAxNzoxNToyMikwHhcNMTkwNDIyMTE0NzQzWhcNMjkwNDE5MTE0NzQzWjCB
hzELMAkGA1UEBhMCVVMxCzAJBgNVBAgMAkNBMRUwEwYDVQQKDAxPcGVuIHZTd2l0
Y2gxHzAdBgNVBAsMFk9wZW4gdlN3aXRjaCBjZXJ0aWZpZXIxMzAxBgNVBAMMKnNj
IGlkOmU2ZTQzMWY5LWQ2MzYtNDY0Mi05YTk1LTY2ZmRlMjM5YzE0YjCCASIwDQYJ
KoZIhvcNAQEBBQADggEPADCCAQoCggEBALlDadpkACFnSJPhxQxfhFHUndF3hyTb
Yavl5m+cxQtoNqF/apmDTJBoz7rCQ0UZp5siy9cqeHp2sg243KnDaZCEZSrcYJ1Z
h7ywrm4rXfX9DayC1+VkUFa2Qmwb6sdGOr3BkKzgeGTeMa9slk5JI2P/ysZ8JvJr
u82I28HjtULt37NLpqbbOWLiXqdDdv/Pvs7rAHMOk8/RfrAnBf+uYuMB46IDfrVn
8Q30gxQxwAEGkUr2N1FpDuIIO1W5f98O2V/uldt+ikQP0f1PcBPZxoYdx8rYH6Xw
XyUBnzCoLCQdye9nZ/P1uLb0Xj6RORZraGRQ3tLO3rUKxwTy53lPAZECAwEAATAN
BgkqhkiG9w0BAQ0FAAOCAQEAkwjXf1OANZKIF5zwnRXlxxI4H6tHarikXsGAuvdq
JJX2oZTnn8cY667HtmlbDiQEEOGMj/7YkjNu2rXvFgdB4Elkgl7jb0zU59NWxuKS
rF+CtAm0+FuZKZxTuBPU4r0K+nsZBYZYaMqk4tBPJ31c9vTzdP3swe7hw12KAcA5
irbJe+kjMPE4IhT5U3Z3/rcKBR6wUlLwIAWOdGlKiFANNKozt8FADY69VqOtlXNP
h3VrxN4HwCPHR2FLYCahC4pN/K7mBoWaSB9VfDzBuK7FB+PYoVoQPTDBDmodX75S
lvDt2F6t39bYPI20pTtskM7urbgug1PjlO2XKbbl67eJzQ==
-----END CERTIFICATE-----
